target datalayout = "e-m:e-p270:32:32-p271:32:32-p272:64:64-i64:64-i128:128-f80:128-n8:16:32:64-S128"
target triple = "x86_64-pc-linux-gnu"

%struct.re_registers = type { i32, i32, ptr, ptr }
%struct.RMatch = type { %struct.RBasic, i64, i64 }
%struct.RBasic = type { i64, i64 }
%struct.rb_matchext_struct = type { %struct.re_registers, ptr, i32 }

@rb_eTypeError = external global i64, align 8
@.str.76 = private unnamed_addr constant [24 x i8] c"uninitialized MatchData\00", align 1

; Function Attrs: inlinehint nounwind sspstrong willreturn memory(read) uwtable
define internal ptr @RMATCH_REGS(i64 noundef %0) #8 {
  %2 = alloca i64, align 8
  store i64 %0, ptr %2, align 8, !tbaa !11
  %3 = load i64, ptr %2, align 8, !tbaa !11
  %4 = inttoptr i64 %3 to ptr
  %5 = getelementptr i8, ptr %4, i64 32
  %6 = getelementptr inbounds nuw %struct.rb_matchext_struct, ptr %5, i32 0, i32 0
  ret ptr %6
}

; Function Attrs: nounwind sspstrong uwtable
define internal i64 @match_check(i64 noundef %0) #0 {
  %2 = alloca i64, align 8
  store i64 %0, ptr %2, align 8, !tbaa !11
  %3 = load i64, ptr %2, align 8, !tbaa !11
  %4 = inttoptr i64 %3 to ptr
  %5 = getelementptr inbounds nuw %struct.RMatch, ptr %4, i32 0, i32 2
  %6 = load i64, ptr %5, align 8, !tbaa !37
  %7 = icmp ne i64 %6, 0
  br i1 %7, label %10, label %8

8:                                                ; preds = %1
  %9 = load i64, ptr @rb_eTypeError, align 8, !tbaa !11
  call void (i64, ptr, ...) @rb_raise(i64 noundef %9, ptr noundef @.str.76) #30
  unreachable

10:                                               ; preds = %1
  %11 = load i64, ptr %2, align 8, !tbaa !11
  ret i64 %11
}

; Function Attrs: inlinehint nounwind sspstrong willreturn memory(none) uwtable
define internal zeroext i1 @RB_NIL_P(i64 noundef %0) #7 {
  %2 = alloca i64, align 8
  store i64 %0, ptr %2, align 8, !tbaa !11
  %3 = load i64, ptr %2, align 8, !tbaa !11
  %4 = icmp eq i64 %3, 4
  ret i1 %4
}

; Function Attrs: nounwind sspstrong uwtable
define dso_local i64 @rb_reg_match_pre(i64 noundef %0) #0 {
  %2 = alloca i64, align 8
  %3 = alloca i64, align 8
  %4 = alloca i64, align 8
  %5 = alloca ptr, align 8
  %6 = alloca i32, align 4
  store i64 %0, ptr %3, align 8, !tbaa !11
  call void @llvm.lifetime.start.p0(i64 8, ptr %4) #28
  call void @llvm.lifetime.start.p0(i64 8, ptr %5) #28
  %7 = load i64, ptr %3, align 8, !tbaa !11
  %8 = call zeroext i1 @RB_NIL_P(i64 noundef %7) #31
  br i1 %8, label %9, label %10

9:                                                ; preds = %1
  store i64 4, ptr %2, align 8
  store i32 1, ptr %6, align 4
  br label %34

10:                                               ; preds = %1
  %11 = load i64, ptr %3, align 8, !tbaa !11
  %12 = call i64 @match_check(i64 noundef %11)
  %13 = load i64, ptr %3, align 8, !tbaa !11
  %14 = call ptr @RMATCH_REGS(i64 noundef %13) #29
  store ptr %14, ptr %5, align 8, !tbaa !32
  %15 = load ptr, ptr %5, align 8, !tbaa !32
  %16 = getelementptr inbounds nuw %struct.re_registers, ptr %15, i32 0, i32 2
  %17 = load ptr, ptr %16, align 8, !tbaa !80
  %18 = getelementptr i64, ptr %17, i64 0
  %19 = load i64, ptr %18, align 8, !tbaa !11
  %20 = icmp eq i64 %19, -1
  br i1 %20, label %21, label %22

21:                                               ; preds = %10
  store i64 4, ptr %2, align 8
  store i32 1, ptr %6, align 4
  br label %34

22:                                               ; preds = %10
  %23 = load i64, ptr %3, align 8, !tbaa !11
  %24 = inttoptr i64 %23 to ptr
  %25 = getelementptr inbounds nuw %struct.RMatch, ptr %24, i32 0, i32 1
  %26 = load i64, ptr %25, align 8, !tbaa !43
  %27 = load ptr, ptr %5, align 8, !tbaa !32
  %28 = getelementptr inbounds nuw %struct.re_registers, ptr %27, i32 0, i32 2
  %29 = load ptr, ptr %28, align 8, !tbaa !80
  %30 = getelementptr i64, ptr %29, i64 0
  %31 = load i64, ptr %30, align 8, !tbaa !11
  %32 = call i64 @rb_str_subseq(i64 noundef %26, i64 noundef 0, i64 noundef %31)
  store i64 %32, ptr %4, align 8, !tbaa !11
  %33 = load i64, ptr %4, align 8, !tbaa !11
  store i64 %33, ptr %2, align 8
  store i32 1, ptr %6, align 4
  br label %34

34:                                               ; preds = %22, %21, %9
  call void @llvm.lifetime.end.p0(i64 8, ptr %5) #28
  call void @llvm.lifetime.end.p0(i64 8, ptr %4) #28
  %35 = load i64, ptr %2, align 8
  ret i64 %35
}