; Function Attrs: nounwind sspstrong uwtable
define dso_local i64 @rb_reg_match_pre(i64 noundef %0) #2 {
  %2 = icmp eq i64 %0, 4
  br i1 %2, label %17, label %3

3:                                                ; preds = %1
  %4 = inttoptr i64 %0 to ptr
  %5 = getelementptr inbounds nuw i8, ptr %4, i64 24
  %6 = load i64, ptr %5, align 8, !tbaa !31
  %.not.i = icmp eq i64 %6, 0
  br i1 %.not.i, label %7, label %match_check.exit

7:                                                ; preds = %3
  %8 = load i64, ptr @rb_eTypeError, align 8, !tbaa !18
  tail call void (i64, ptr, ...) @rb_raise(i64 noundef %8, ptr noundef nonnull @.str.76) #30
  unreachable

match_check.exit:                                 ; preds = %3
  %9 = getelementptr i8, ptr %4, i64 40
  %10 = load ptr, ptr %9, align 8, !tbaa !92
  %11 = load i64, ptr %10, align 8, !tbaa !18
  %12 = icmp eq i64 %11, -1
  br i1 %12, label %17, label %13

13:                                               ; preds = %match_check.exit
  %14 = getelementptr inbounds nuw i8, ptr %4, i64 16
  %15 = load i64, ptr %14, align 8, !tbaa !94
  %16 = tail call i64 @rb_str_subseq(i64 noundef %15, i64 noundef 0, i64 noundef %11) #29
  br label %17

17:                                               ; preds = %match_check.exit, %1, %13
  %.0 = phi i64 [ %16, %13 ], [ 4, %1 ], [ 4, %match_check.exit ]
  ret i64 %.0
}